; Function Attrs: nounwind uwtable
define ptr @l_Lean_Grind_CommRing_Poly_length(ptr noundef %0) local_unnamed_addr #1 {
  %2 = ptrtoint ptr %0 to i64
  %3 = and i64 %2, 1
  %.not.i9 = icmp eq i64 %3, 0
  br i1 %.not.i9, label %7, label %4

4:                                                ; preds = %1
  %5 = lshr i64 %2, 1
  %6 = trunc i64 %5 to i32
  br label %lean_obj_tag.exit

7:                                                ; preds = %1
  %8 = getelementptr i8, ptr %0, i64 4
  %.val.i = load i32, ptr %8, align 4
  %9 = lshr i32 %.val.i, 24
  br label %lean_obj_tag.exit

lean_obj_tag.exit:                                ; preds = %4, %7
  %.0.i10 = phi i32 [ %6, %4 ], [ %9, %7 ]
  %10 = icmp eq i32 %.0.i10, 0
  br i1 %10, label %lean_dec.exit, label %11

11:                                               ; preds = %lean_obj_tag.exit
  %12 = getelementptr inbounds nuw i8, ptr %0, i64 24
  %13 = load ptr, ptr %12, align 8, !tbaa !6
  %14 = tail call ptr @l_Lean_Grind_CommRing_Poly_length(ptr noundef %13)
  %15 = ptrtoint ptr %14 to i64
  %16 = and i64 %15, 1
  %.not = icmp eq i64 %16, 0
  br i1 %.not, label %27, label %17, !prof !4

17:                                               ; preds = %11
  %18 = lshr i64 %15, 1
  %19 = add nuw i64 %18, 1
  %20 = icmp sgt i64 %19, -1
  br i1 %20, label %21, label %25, !prof !5

21:                                               ; preds = %17
  %22 = shl nuw i64 %19, 1
  %23 = or disjoint i64 %22, 1
  %24 = inttoptr i64 %23 to ptr
  br label %lean_dec.exit

25:                                               ; preds = %17
  %26 = tail call ptr @lean_big_usize_to_nat(i64 noundef range(i64 0, -1) %19) #6
  br label %lean_dec.exit

27:                                               ; preds = %11
  %28 = tail call ptr @lean_nat_big_add(ptr noundef nonnull inttoptr (i64 3 to ptr), ptr noundef %14) #6
  %29 = load i32, ptr %14, align 4, !tbaa !10
  %30 = icmp sgt i32 %29, 1
  br i1 %30, label %31, label %33, !prof !5

31:                                               ; preds = %27
  %32 = add nsw i32 %29, -1
  store i32 %32, ptr %14, align 4, !tbaa !10
  br label %lean_dec.exit

33:                                               ; preds = %27
  %.not.i = icmp eq i32 %29, 0
  br i1 %.not.i, label %lean_dec.exit, label %34

34:                                               ; preds = %33
  tail call void @lean_dec_ref_cold(ptr noundef nonnull %14) #6
  br label %lean_dec.exit

lean_dec.exit:                                    ; preds = %21, %25, %31, %33, %34, %lean_obj_tag.exit
  %.0 = phi ptr [ inttoptr (i64 1 to ptr), %lean_obj_tag.exit ], [ %28, %34 ], [ %28, %33 ], [ %28, %31 ], [ %26, %25 ], [ %24, %21 ]
  ret ptr %.0
}